target datalayout = "e-m:e-p270:32:32-p271:32:32-p272:64:64-i64:64-i128:128-f80:128-n8:16:32:64-S128"
target triple = "x86_64-pc-linux-gnu"

%"class.cxx20::expected" = type { %"struct.cxx20::detail::expected_move_assign_base" }
%"struct.cxx20::detail::expected_move_assign_base" = type { %"struct.cxx20::detail::expected_copy_assign_base" }
%"struct.cxx20::detail::expected_copy_assign_base" = type { %"struct.cxx20::detail::expected_move_base" }
%"struct.cxx20::detail::expected_move_base" = type { %"struct.cxx20::detail::expected_copy_base" }
%"struct.cxx20::detail::expected_copy_base" = type { %"struct.cxx20::detail::expected_operations_base" }
%"struct.cxx20::detail::expected_operations_base" = type { %"struct.cxx20::detail::expected_view_base" }
%"struct.cxx20::detail::expected_view_base" = type { %"struct.cxx20::detail::expected_storage_base" }
%"struct.cxx20::detail::expected_storage_base" = type { i8, %union.anon }
%union.anon = type { %"class.cxx20::unexpected" }
%"class.cxx20::unexpected" = type { %"class.WasmEdge::ErrCode" }
%"class.WasmEdge::ErrCode" = type { %"union.WasmEdge::ErrCode::InnerT" }
%"union.WasmEdge::ErrCode::InnerT" = type { i32 }
%"class.WasmEdge::AST::Instruction" = type <{ %"union.WasmEdge::AST::Instruction::Inner", i32, i32, %struct.anon.34, [7 x i8] }>
%"union.WasmEdge::AST::Instruction::Inner" = type { i128 }
%struct.anon.34 = type { i8 }
%"class.WasmEdge::BlockType" = type { %union.anon.25 }
%union.anon.25 = type { %"class.WasmEdge::ValType" }
%"class.WasmEdge::ValType" = type { %union.anon.26 }
%union.anon.26 = type { %struct.anon.27 }
%struct.anon.27 = type { i8, i8, i8, i8, i32 }
%"struct.cxx20::span.329" = type { %"class.cxx20::detail::span_storage.330" }
%"class.cxx20::detail::span_storage.330" = type { ptr, i64 }
%"struct.WasmEdge::AST::Instruction::TryDescriptor" = type { %"class.WasmEdge::BlockType", i32, i32, %"class.std::vector.324" }
%"class.std::vector.324" = type { %"struct.std::_Vector_base.325" }
%"struct.std::_Vector_base.325" = type { %"struct.std::_Vector_base<WasmEdge::AST::Instruction::CatchDescriptor, std::allocator<WasmEdge::AST::Instruction::CatchDescriptor>>::_Vector_impl" }
%"struct.std::_Vector_base<WasmEdge::AST::Instruction::CatchDescriptor, std::allocator<WasmEdge::AST::Instruction::CatchDescriptor>>::_Vector_impl" = type { %"struct.std::_Vector_base<WasmEdge::AST::Instruction::CatchDescriptor, std::allocator<WasmEdge::AST::Instruction::CatchDescriptor>>::_Vector_impl_data" }
%"struct.std::_Vector_base<WasmEdge::AST::Instruction::CatchDescriptor, std::allocator<WasmEdge::AST::Instruction::CatchDescriptor>>::_Vector_impl_data" = type { ptr, ptr, ptr }

; Function Attrs: mustprogress nounwind uwtable
define linkonce_odr hidden void @_ZN5cxx206detail21expected_storage_baseIvN8WasmEdge7ErrCodeELb0ELb1EEC2Ev(ptr noundef nonnull align 4 dereferenceable(8) %0) unnamed_addr #0 comdat align 2 {
  %2 = alloca ptr, align 8
  store ptr %0, ptr %2, align 8
  %3 = load ptr, ptr %2, align 8
  %4 = getelementptr inbounds %"struct.cxx20::detail::expected_storage_base", ptr %3, i32 0, i32 0
  store i8 1, ptr %4, align 4
  %5 = getelementptr inbounds %"struct.cxx20::detail::expected_storage_base", ptr %3, i32 0, i32 1
  store i8 0, ptr %5, align 4
  ret void
}

; Function Attrs: mustprogress nounwind uwtable
define linkonce_odr hidden void @_ZN5cxx206detail18expected_view_baseIvN8WasmEdge7ErrCodeEEC2Ev(ptr noundef nonnull align 4 dereferenceable(8) %0) unnamed_addr #0 comdat align 2 {
  %2 = alloca ptr, align 8
  store ptr %0, ptr %2, align 8
  %3 = load ptr, ptr %2, align 8
  call void @_ZN5cxx206detail21expected_storage_baseIvN8WasmEdge7ErrCodeELb0ELb1EEC2Ev(ptr noundef nonnull align 4 dereferenceable(8) %3) #15
  ret void
}

; Function Attrs: mustprogress nounwind uwtable
define linkonce_odr hidden void @_ZN5cxx206detail24expected_operations_baseIvN8WasmEdge7ErrCodeEEC2Ev(ptr noundef nonnull align 4 dereferenceable(8) %0) unnamed_addr #0 comdat align 2 {
  %2 = alloca ptr, align 8
  store ptr %0, ptr %2, align 8
  %3 = load ptr, ptr %2, align 8
  call void @_ZN5cxx206detail18expected_view_baseIvN8WasmEdge7ErrCodeEEC2Ev(ptr noundef nonnull align 4 dereferenceable(8) %3) #15
  ret void
}

; Function Attrs: mustprogress nounwind uwtable
define linkonce_odr hidden void @_ZN5cxx206detail18expected_copy_baseIvN8WasmEdge7ErrCodeELb0EEC2Ev(ptr noundef nonnull align 4 dereferenceable(8) %0) unnamed_addr #0 comdat align 2 {
  %2 = alloca ptr, align 8
  store ptr %0, ptr %2, align 8
  %3 = load ptr, ptr %2, align 8
  call void @_ZN5cxx206detail24expected_operations_baseIvN8WasmEdge7ErrCodeEEC2Ev(ptr noundef nonnull align 4 dereferenceable(8) %3) #15
  ret void
}

; Function Attrs: mustprogress nounwind uwtable
define linkonce_odr hidden void @_ZN5cxx206detail18expected_move_baseIvN8WasmEdge7ErrCodeELb0EEC2Ev(ptr noundef nonnull align 4 dereferenceable(8) %0) unnamed_addr #0 comdat align 2 {
  %2 = alloca ptr, align 8
  store ptr %0, ptr %2, align 8
  %3 = load ptr, ptr %2, align 8
  call void @_ZN5cxx206detail18expected_copy_baseIvN8WasmEdge7ErrCodeELb0EEC2Ev(ptr noundef nonnull align 4 dereferenceable(8) %3) #15
  ret void
}

; Function Attrs: mustprogress nounwind uwtable
define linkonce_odr hidden noundef ptr @_ZNKSt6vectorIN8WasmEdge3AST11Instruction15CatchDescriptorESaIS3_EE11_M_data_ptrIS3_EEPT_S8_(ptr noundef nonnull align 8 dereferenceable(24) %0, ptr noundef %1) #0 comdat align 2 {
  %3 = alloca ptr, align 8
  %4 = alloca ptr, align 8
  store ptr %0, ptr %3, align 8
  store ptr %1, ptr %4, align 8
  %5 = load ptr, ptr %4, align 8
  ret ptr %5
}

; Function Attrs: mustprogress nounwind uwtable
define linkonce_odr hidden void @_ZN5cxx206detail25expected_copy_assign_baseIvN8WasmEdge7ErrCodeELb0EEC2Ev(ptr noundef nonnull align 4 dereferenceable(8) %0) unnamed_addr #0 comdat align 2 {
  %2 = alloca ptr, align 8
  store ptr %0, ptr %2, align 8
  %3 = load ptr, ptr %2, align 8
  call void @_ZN5cxx206detail18expected_move_baseIvN8WasmEdge7ErrCodeELb0EEC2Ev(ptr noundef nonnull align 4 dereferenceable(8) %3) #15
  ret void
}

; Function Attrs: mustprogress nounwind uwtable
define linkonce_odr hidden noundef i64 @_ZNKSt6vectorIN8WasmEdge3AST11Instruction15CatchDescriptorESaIS3_EE4sizeEv(ptr noundef nonnull align 8 dereferenceable(24) %0) #0 comdat align 2 {
  %2 = alloca ptr, align 8
  store ptr %0, ptr %2, align 8
  %3 = load ptr, ptr %2, align 8
  %4 = getelementptr inbounds %"struct.std::_Vector_base.325", ptr %3, i32 0, i32 0
  %5 = getelementptr inbounds %"struct.std::_Vector_base<WasmEdge::AST::Instruction::CatchDescriptor, std::allocator<WasmEdge::AST::Instruction::CatchDescriptor>>::_Vector_impl_data", ptr %4, i32 0, i32 1
  %6 = load ptr, ptr %5, align 8
  %7 = getelementptr inbounds %"struct.std::_Vector_base.325", ptr %3, i32 0, i32 0
  %8 = getelementptr inbounds %"struct.std::_Vector_base<WasmEdge::AST::Instruction::CatchDescriptor, std::allocator<WasmEdge::AST::Instruction::CatchDescriptor>>::_Vector_impl_data", ptr %7, i32 0, i32 0
  %9 = load ptr, ptr %8, align 8
  %10 = ptrtoint ptr %6 to i64
  %11 = ptrtoint ptr %9 to i64
  %12 = sub i64 %10, %11
  %13 = sdiv exact i64 %12, 28
  ret i64 %13
}

; Function Attrs: mustprogress nounwind uwtable
define linkonce_odr hidden noundef ptr @_ZNKSt6vectorIN8WasmEdge3AST11Instruction15CatchDescriptorESaIS3_EE4dataEv(ptr noundef nonnull align 8 dereferenceable(24) %0) #0 comdat align 2 {
  %2 = alloca ptr, align 8
  store ptr %0, ptr %2, align 8
  %3 = load ptr, ptr %2, align 8
  %4 = getelementptr inbounds %"struct.std::_Vector_base.325", ptr %3, i32 0, i32 0
  %5 = getelementptr inbounds %"struct.std::_Vector_base<WasmEdge::AST::Instruction::CatchDescriptor, std::allocator<WasmEdge::AST::Instruction::CatchDescriptor>>::_Vector_impl_data", ptr %4, i32 0, i32 0
  %6 = load ptr, ptr %5, align 8
  %7 = call noundef ptr @_ZNKSt6vectorIN8WasmEdge3AST11Instruction15CatchDescriptorESaIS3_EE11_M_data_ptrIS3_EEPT_S8_(ptr noundef nonnull align 8 dereferenceable(24) %3, ptr noundef %6) #15
  ret ptr %7
}

; Function Attrs: mustprogress nounwind uwtable
define linkonce_odr hidden void @_ZN5cxx206detail25expected_move_assign_baseIvN8WasmEdge7ErrCodeELb0EEC2Ev(ptr noundef nonnull align 4 dereferenceable(8) %0) unnamed_addr #0 comdat align 2 {
  %2 = alloca ptr, align 8
  store ptr %0, ptr %2, align 8
  %3 = load ptr, ptr %2, align 8
  call void @_ZN5cxx206detail25expected_copy_assign_baseIvN8WasmEdge7ErrCodeELb0EEC2Ev(ptr noundef nonnull align 4 dereferenceable(8) %3) #15
  ret void
}

; Function Attrs: mustprogress nounwind uwtable
define linkonce_odr hidden void @_ZN5cxx206detail12span_storageIKN8WasmEdge3AST11Instruction15CatchDescriptorELm18446744073709551615EEC2EPS6_m(ptr noundef nonnull align 8 dereferenceable(16) %0, ptr noundef %1, i64 noundef %2) unnamed_addr #0 comdat align 2 {
  %4 = alloca ptr, align 8
  %5 = alloca ptr, align 8
  %6 = alloca i64, align 8
  store ptr %0, ptr %4, align 8
  store ptr %1, ptr %5, align 8
  store i64 %2, ptr %6, align 8
  %7 = load ptr, ptr %4, align 8
  %8 = getelementptr inbounds %"class.cxx20::detail::span_storage.330", ptr %7, i32 0, i32 0
  %9 = load ptr, ptr %5, align 8
  store ptr %9, ptr %8, align 8
  %10 = getelementptr inbounds %"class.cxx20::detail::span_storage.330", ptr %7, i32 0, i32 1
  %11 = load i64, ptr %6, align 8
  store i64 %11, ptr %10, align 8
  ret void
}

; Function Attrs: mustprogress nounwind uwtable
define linkonce_odr noundef i64 @_ZSt4sizeISt6vectorIN8WasmEdge3AST11Instruction15CatchDescriptorESaIS4_EEEDTcldtfp_4sizeEERKT_(ptr noundef nonnull align 8 dereferenceable(24) %0) #0 comdat {
  %2 = alloca ptr, align 8
  store ptr %0, ptr %2, align 8
  %3 = load ptr, ptr %2, align 8
  %4 = call noundef i64 @_ZNKSt6vectorIN8WasmEdge3AST11Instruction15CatchDescriptorESaIS3_EE4sizeEv(ptr noundef nonnull align 8 dereferenceable(24) %3) #15
  ret i64 %4
}

; Function Attrs: mustprogress nounwind uwtable
define linkonce_odr noundef ptr @_ZSt4dataISt6vectorIN8WasmEdge3AST11Instruction15CatchDescriptorESaIS4_EEEDTcldtfp_4dataEERKT_(ptr noundef nonnull align 8 dereferenceable(24) %0) #0 comdat {
  %2 = alloca ptr, align 8
  store ptr %0, ptr %2, align 8
  %3 = load ptr, ptr %2, align 8
  %4 = call noundef ptr @_ZNKSt6vectorIN8WasmEdge3AST11Instruction15CatchDescriptorESaIS3_EE4dataEv(ptr noundef nonnull align 8 dereferenceable(24) %3) #15
  ret ptr %4
}

; Function Attrs: noreturn nounwind uwtable
define linkonce_odr hidden void @__clang_call_terminate(ptr noundef %0) #1 comdat {
  %2 = call ptr @__cxa_begin_catch(ptr %0) #15
  call void @_ZSt9terminatev() #16
  unreachable
}

; Function Attrs: mustprogress nounwind uwtable
define linkonce_odr hidden void @_ZN5cxx208expectedIvN8WasmEdge7ErrCodeEEC2Ev(ptr noundef nonnull align 4 dereferenceable(8) %0) unnamed_addr #0 comdat align 2 {
  %2 = alloca ptr, align 8
  store ptr %0, ptr %2, align 8
  %3 = load ptr, ptr %2, align 8
  call void @_ZN5cxx206detail25expected_move_assign_baseIvN8WasmEdge7ErrCodeELb0EEC2Ev(ptr noundef nonnull align 4 dereferenceable(8) %3) #15
  ret void
}

; Function Attrs: mustprogress nounwind uwtable
define linkonce_odr hidden void @_ZN5cxx204spanIKN8WasmEdge3AST11Instruction15CatchDescriptorELm18446744073709551615EEC2IRKSt6vectorIS4_SaIS4_EETnPNSt9enable_ifIXaasr6detailE18is_generic_range_vIT_Esr6detailE21is_compatible_range_vIS5_SE_EEvE4typeELPv0EEEOSE_(ptr noundef nonnull align 8 dereferenceable(16) %0, ptr noundef nonnull align 8 dereferenceable(24) %1) unnamed_addr #0 comdat align 2 {
  %3 = alloca ptr, align 8
  %4 = alloca ptr, align 8
  store ptr %0, ptr %3, align 8
  store ptr %1, ptr %4, align 8
  %5 = load ptr, ptr %3, align 8
  %6 = load ptr, ptr %4, align 8
  %7 = call noundef ptr @_ZSt4dataISt6vectorIN8WasmEdge3AST11Instruction15CatchDescriptorESaIS4_EEEDTcldtfp_4dataEERKT_(ptr noundef nonnull align 8 dereferenceable(24) %6) #15
  %8 = load ptr, ptr %4, align 8
  %9 = call noundef i64 @_ZSt4sizeISt6vectorIN8WasmEdge3AST11Instruction15CatchDescriptorESaIS4_EEEDTcldtfp_4sizeEERKT_(ptr noundef nonnull align 8 dereferenceable(24) %8) #15
  call void @_ZN5cxx206detail12span_storageIKN8WasmEdge3AST11Instruction15CatchDescriptorELm18446744073709551615EEC2EPS6_m(ptr noundef nonnull align 8 dereferenceable(16) %5, ptr noundef %7, i64 noundef %9) #15
  ret void
}

; Function Attrs: mustprogress nounwind uwtable
define linkonce_odr hidden noundef nonnull align 8 dereferenceable(40) ptr @_ZNK8WasmEdge3AST11Instruction11getTryCatchEv(ptr noundef nonnull align 16 dereferenceable(25) %0) #0 comdat align 2 {
  %2 = alloca ptr, align 8
  store ptr %0, ptr %2, align 8
  %3 = load ptr, ptr %2, align 8
  %4 = getelementptr inbounds %"class.WasmEdge::AST::Instruction", ptr %3, i32 0, i32 0
  %5 = load ptr, ptr %4, align 16
  ret ptr %5
}

; Function Attrs: mustprogress nounwind uwtable
define void @_ZN8WasmEdge8Executor8Executor13runTryTableOpERNS_7Runtime12StackManagerERKNS_3AST11InstructionERPS7_(ptr dead_on_unwind noalias writable sret(%"class.cxx20::expected") align 4 %0, ptr noundef nonnull align 8 dereferenceable(408) %1, ptr noundef nonnull align 8 dereferenceable(48) %2, ptr noundef nonnull align 16 dereferenceable(25) %3, ptr noundef nonnull align 8 dereferenceable(8) %4) #0 align 2 personality ptr @__gxx_personality_v0 {
  %6 = alloca ptr, align 8
  %7 = alloca ptr, align 8
  %8 = alloca ptr, align 8
  %9 = alloca ptr, align 8
  %10 = alloca ptr, align 8
  %11 = alloca ptr, align 8
  %12 = alloca %"struct.cxx20::span.329", align 8
  store ptr %0, ptr %6, align 8
  store ptr %1, ptr %7, align 8
  store ptr %2, ptr %8, align 8
  store ptr %3, ptr %9, align 8
  store ptr %4, ptr %10, align 8
  %13 = load ptr, ptr %9, align 8
  %14 = call noundef nonnull align 8 dereferenceable(40) ptr @_ZNK8WasmEdge3AST11Instruction11getTryCatchEv(ptr noundef nonnull align 16 dereferenceable(25) %13) #15
  store ptr %14, ptr %11, align 8
  %15 = load ptr, ptr %8, align 8
  %16 = load ptr, ptr %10, align 8
  %17 = load ptr, ptr %16, align 8
  %18 = load ptr, ptr %11, align 8
  %19 = getelementptr inbounds %"struct.WasmEdge::AST::Instruction::TryDescriptor", ptr %18, i32 0, i32 1
  %20 = load i32, ptr %19, align 8
  %21 = load ptr, ptr %11, align 8
  %22 = getelementptr inbounds %"struct.WasmEdge::AST::Instruction::TryDescriptor", ptr %21, i32 0, i32 3
  invoke void @_ZN5cxx204spanIKN8WasmEdge3AST11Instruction15CatchDescriptorELm18446744073709551615EEC2IRKSt6vectorIS4_SaIS4_EETnPNSt9enable_ifIXaasr6detailE18is_generic_range_vIT_Esr6detailE21is_compatible_range_vIS5_SE_EEvE4typeELPv0EEEOSE_(ptr noundef nonnull align 8 dereferenceable(16) %12, ptr noundef nonnull align 8 dereferenceable(24) %22)
          to label %23 unwind label %28

23:                                               ; preds = %5
  %24 = getelementptr inbounds { ptr, i64 }, ptr %12, i32 0, i32 0
  %25 = load ptr, ptr %24, align 8
  %26 = getelementptr inbounds { ptr, i64 }, ptr %12, i32 0, i32 1
  %27 = load i64, ptr %26, align 8
  call void @_ZN8WasmEdge7Runtime12StackManager11pushHandlerEPKNS_3AST11InstructionEjN5cxx204spanIKNS3_15CatchDescriptorELm18446744073709551615EEE(ptr noundef nonnull align 8 dereferenceable(48) %15, ptr noundef %17, i32 noundef %20, ptr %25, i64 %27) #15
  call void @llvm.memset.p0.i64(ptr align 4 %0, i8 0, i64 8, i1 false)
  call void @_ZN5cxx208expectedIvN8WasmEdge7ErrCodeEEC2Ev(ptr noundef nonnull align 4 dereferenceable(8) %0) #15
  ret void

28:                                               ; preds = %5
  %29 = landingpad { ptr, i32 }
          catch ptr null
  %30 = extractvalue { ptr, i32 } %29, 0
  call void @__clang_call_terminate(ptr %30) #16
  unreachable
}