; Function Attrs: mustprogress nounwind uwtable
define void @_ZN8WasmEdge8Executor8Executor13runTryTableOpERNS_7Runtime12StackManagerERKNS_3AST11InstructionERPS7_(ptr dead_on_unwind noalias writable writeonly sret(%"class.cxx20::expected") align 4 captures(none) initializes((0, 8)) %0, ptr noundef nonnull readnone align 8 captures(none) dereferenceable(408) %1, ptr noundef nonnull align 8 dereferenceable(48) %2, ptr noundef nonnull readonly align 16 captures(none) dereferenceable(25) %3, ptr noundef nonnull readonly align 8 captures(none) dereferenceable(8) %4) local_unnamed_addr #0 align 2 personality ptr @__gxx_personality_v0 {
  %6 = load ptr, ptr %3, align 16
  %7 = load ptr, ptr %4, align 8
  %8 = getelementptr inbounds nuw i8, ptr %6, i64 8
  %9 = load i32, ptr %8, align 8
  %10 = getelementptr inbounds nuw i8, ptr %6, i64 16
  %11 = load ptr, ptr %10, align 8
  %12 = getelementptr inbounds nuw i8, ptr %6, i64 24
  %13 = load ptr, ptr %12, align 8
  %14 = ptrtoint ptr %13 to i64
  %15 = ptrtoint ptr %11 to i64
  %16 = sub i64 %14, %15
  %17 = sdiv exact i64 %16, 28
  tail call void @_ZN8WasmEdge7Runtime12StackManager11pushHandlerEPKNS_3AST11InstructionEjN5cxx204spanIKNS3_15CatchDescriptorELm18446744073709551615EEE(ptr noundef nonnull align 8 dereferenceable(48) %2, ptr noundef %7, i32 noundef %9, ptr %11, i64 %17) #19
  store i64 1, ptr %0, align 4
  ret void
}